target datalayout = "e-m:e-p270:32:32-p271:32:32-p272:64:64-i64:64-i128:128-f80:128-n8:16:32:64-S128"
target triple = "x86_64-pc-linux-gnu"

%struct._GArray = type { ptr, i32 }
%struct.file_type_subtype_info = type { ptr, ptr, ptr, ptr, i8, i64, ptr, ptr, ptr, ptr }

@file_type_subtype_table_arr = internal global ptr null, align 8
@file_type_subtype_table = internal global ptr null, align 8

; Function Attrs: nounwind null_pointer_is_valid sspstrong uwtable
define zeroext i1 @wtap_dump_can_open(i32 noundef %0) #2 {
  %2 = alloca i1, align 1
  %3 = alloca i32, align 4
  store i32 %0, ptr %3, align 4
  %4 = load i32, ptr %3, align 4
  %5 = icmp slt i32 %4, 0
  br i1 %5, label %20, label %6

6:                                                ; preds = %1
  %7 = load i32, ptr %3, align 4
  %8 = load ptr, ptr @file_type_subtype_table_arr, align 8
  %9 = getelementptr inbounds nuw %struct._GArray, ptr %8, i32 0, i32 1
  %10 = load i32, ptr %9, align 8
  %11 = icmp sge i32 %7, %10
  br i1 %11, label %20, label %12

12:                                               ; preds = %6
  %13 = load ptr, ptr @file_type_subtype_table, align 8
  %14 = load i32, ptr %3, align 4
  %15 = sext i32 %14 to i64
  %16 = getelementptr %struct.file_type_subtype_info, ptr %13, i64 %15
  %17 = getelementptr inbounds nuw %struct.file_type_subtype_info, ptr %16, i32 0, i32 8
  %18 = load ptr, ptr %17, align 8
  %19 = icmp eq ptr %18, null
  br i1 %19, label %20, label %21

20:                                               ; preds = %12, %6, %1
  store i1 false, ptr %2, align 1
  br label %22

21:                                               ; preds = %12
  store i1 true, ptr %2, align 1
  br label %22

22:                                               ; preds = %21, %20
  %23 = load i1, ptr %2, align 1
  ret i1 %23
}