; Function Attrs: mustprogress nofree norecurse nosync nounwind null_pointer_is_valid sspstrong willreturn memory(read, inaccessiblemem: none) uwtable
define zeroext i1 @wtap_dump_can_open(i32 noundef %0) local_unnamed_addr #2 {
  %2 = icmp slt i32 %0, 0
  br i1 %2, label %13, label %3

3:                                                ; preds = %1
  %4 = load ptr, ptr @file_type_subtype_table_arr, align 8
  %5 = getelementptr inbounds nuw i8, ptr %4, i64 8
  %6 = load i32, ptr %5, align 8
  %.not = icmp slt i32 %0, %6
  br i1 %.not, label %7, label %13

7:                                                ; preds = %3
  %8 = load ptr, ptr @file_type_subtype_table, align 8
  %9 = zext nneg i32 %0 to i64
  %10 = getelementptr %struct.file_type_subtype_info, ptr %8, i64 %9, i32 8
  %11 = load ptr, ptr %10, align 8
  %12 = icmp ne ptr %11, null
  br label %13

13:                                               ; preds = %7, %1, %3
  %.0 = phi i1 [ false, %3 ], [ false, %1 ], [ %12, %7 ]
  ret i1 %.0
}